target datalayout = "e-m:e-p270:32:32-p271:32:32-p272:64:64-i64:64-i128:128-f80:128-n8:16:32:64-S128"
target triple = "x86_64-pc-linux-gnu"

%"class.std::vector" = type { %"struct.std::_Vector_base" }
%"struct.std::_Vector_base" = type { %"struct.std::_Vector_base<folly::HugePageSize, std::allocator<folly::HugePageSize>>::_Vector_impl" }
%"struct.std::_Vector_base<folly::HugePageSize, std::allocator<folly::HugePageSize>>::_Vector_impl" = type { %"struct.std::_Vector_base<folly::HugePageSize, std::allocator<folly::HugePageSize>>::_Vector_impl_data" }
%"struct.std::_Vector_base<folly::HugePageSize, std::allocator<folly::HugePageSize>>::_Vector_impl_data" = type { ptr, ptr, ptr }
%"class.std::__cxx11::basic_string" = type { %"struct.std::__cxx11::basic_string<char>::_Alloc_hider", i64, %union.anon }
%"struct.std::__cxx11::basic_string<char>::_Alloc_hider" = type { ptr }
%union.anon = type { i64, [8 x i8] }
%"class.boost::filesystem::path" = type { %"class.std::__cxx11::basic_string" }
%"class.__gnu_cxx::__normal_iterator.246" = type { ptr }
%"struct.folly::HugePageSize" = type { i64, %"class.boost::filesystem::path", i64 }

@__dso_handle = external hidden global i8
@_ZZN5folly16getHugePageSizesEvE5sizes = internal global %"class.std::vector" zeroinitializer, align 8
@_ZGVZN5folly16getHugePageSizesEvE5sizes = internal global i64 0, align 8

; Function Attrs: mustprogress nounwind uwtable
define available_externally noundef i64 @_ZNKSt7__cxx1112basic_stringIcSt11char_traitsIcESaIcEE4sizeEv(ptr noundef nonnull align 8 dereferenceable(32) %0) #2 align 2 {
  %2 = alloca ptr, align 8
  store ptr %0, ptr %2, align 8, !tbaa !12
  %3 = load ptr, ptr %2, align 8
  %4 = getelementptr inbounds nuw %"class.std::__cxx11::basic_string", ptr %3, i32 0, i32 1
  %5 = load i64, ptr %4, align 8, !tbaa !33
  ret i64 %5
}

; Function Attrs: mustprogress nounwind uwtable
define available_externally noundef zeroext i1 @_ZNKSt7__cxx1112basic_stringIcSt11char_traitsIcESaIcEE5emptyEv(ptr noundef nonnull align 8 dereferenceable(32) %0) #2 align 2 {
  %2 = alloca ptr, align 8
  store ptr %0, ptr %2, align 8, !tbaa !12
  %3 = load ptr, ptr %2, align 8
  %4 = call noundef i64 @_ZNKSt7__cxx1112basic_stringIcSt11char_traitsIcESaIcEE4sizeEv(ptr noundef nonnull align 8 dereferenceable(32) %3) #12
  %5 = icmp eq i64 %4, 0
  ret i1 %5
}

; Function Attrs: mustprogress nounwind uwtable
define linkonce_odr noundef nonnull align 8 dereferenceable(8) ptr @_ZNK9__gnu_cxx17__normal_iteratorIPKN5folly12HugePageSizeESt6vectorIS2_SaIS2_EEE4baseEv(ptr noundef nonnull align 8 dereferenceable(8) %0) #2 comdat align 2 {
  %2 = alloca ptr, align 8
  store ptr %0, ptr %2, align 8, !tbaa !1506
  %3 = load ptr, ptr %2, align 8
  %4 = getelementptr inbounds nuw %"class.__gnu_cxx::__normal_iterator.246", ptr %3, i32 0, i32 0
  ret ptr %4
}

; Function Attrs: mustprogress nounwind uwtable
define linkonce_odr void @_ZN9__gnu_cxx17__normal_iteratorIPKN5folly12HugePageSizeESt6vectorIS2_SaIS2_EEEC2ERKS4_(ptr noundef nonnull align 8 dereferenceable(8) %0, ptr noundef nonnull align 8 dereferenceable(8) %1) unnamed_addr #2 comdat align 2 {
  %3 = alloca ptr, align 8
  %4 = alloca ptr, align 8
  store ptr %0, ptr %3, align 8, !tbaa !1506
  store ptr %1, ptr %4, align 8, !tbaa !1446
  %5 = load ptr, ptr %3, align 8
  %6 = getelementptr inbounds nuw %"class.__gnu_cxx::__normal_iterator.246", ptr %5, i32 0, i32 0
  %7 = load ptr, ptr %4, align 8, !tbaa !1446
  %8 = load ptr, ptr %7, align 8, !tbaa !68
  store ptr %8, ptr %6, align 8, !tbaa !1508
  ret void
}

; Function Attrs: mustprogress nounwind uwtable
define linkonce_odr noundef nonnull align 8 dereferenceable(8) ptr @_ZN9__gnu_cxx17__normal_iteratorIPKN5folly12HugePageSizeESt6vectorIS2_SaIS2_EEEppEv(ptr noundef nonnull align 8 dereferenceable(8) %0) #2 comdat align 2 {
  %2 = alloca ptr, align 8
  store ptr %0, ptr %2, align 8, !tbaa !1506
  %3 = load ptr, ptr %2, align 8
  %4 = getelementptr inbounds nuw %"class.__gnu_cxx::__normal_iterator.246", ptr %3, i32 0, i32 0
  %5 = load ptr, ptr %4, align 8, !tbaa !1508
  %6 = getelementptr inbounds nuw %"struct.folly::HugePageSize", ptr %5, i32 1
  store ptr %6, ptr %4, align 8, !tbaa !1508
  ret ptr %3
}

; Function Attrs: mustprogress nounwind uwtable
define linkonce_odr noundef zeroext i1 @_ZNK5boost10filesystem4path5emptyEv(ptr noundef nonnull align 8 dereferenceable(32) %0) #2 comdat align 2 {
  %2 = alloca ptr, align 8
  store ptr %0, ptr %2, align 8, !tbaa !115
  %3 = load ptr, ptr %2, align 8
  %4 = getelementptr inbounds nuw %"class.boost::filesystem::path", ptr %3, i32 0, i32 0
  %5 = call noundef zeroext i1 @_ZNKSt7__cxx1112basic_stringIcSt11char_traitsIcESaIcEE5emptyEv(ptr noundef nonnull align 8 dereferenceable(32) %4) #12
  ret i1 %5
}

; Function Attrs: mustprogress nounwind uwtable
define linkonce_odr noundef nonnull align 8 dereferenceable(48) ptr @_ZNK9__gnu_cxx17__normal_iteratorIPKN5folly12HugePageSizeESt6vectorIS2_SaIS2_EEEdeEv(ptr noundef nonnull align 8 dereferenceable(8) %0) #2 comdat align 2 {
  %2 = alloca ptr, align 8
  store ptr %0, ptr %2, align 8, !tbaa !1506
  %3 = load ptr, ptr %2, align 8
  %4 = getelementptr inbounds nuw %"class.__gnu_cxx::__normal_iterator.246", ptr %3, i32 0, i32 0
  %5 = load ptr, ptr %4, align 8, !tbaa !1508
  ret ptr %5
}

; Function Attrs: inlinehint mustprogress nounwind uwtable
define linkonce_odr noundef zeroext i1 @_ZN9__gnu_cxxneIPKN5folly12HugePageSizeESt6vectorIS2_SaIS2_EEEEbRKNS_17__normal_iteratorIT_T0_EESD_(ptr noundef nonnull align 8 dereferenceable(8) %0, ptr noundef nonnull align 8 dereferenceable(8) %1) #9 comdat {
  %3 = alloca ptr, align 8
  %4 = alloca ptr, align 8
  store ptr %0, ptr %3, align 8, !tbaa !1506
  store ptr %1, ptr %4, align 8, !tbaa !1506
  %5 = load ptr, ptr %3, align 8, !tbaa !1506
  %6 = call noundef nonnull align 8 dereferenceable(8) ptr @_ZNK9__gnu_cxx17__normal_iteratorIPKN5folly12HugePageSizeESt6vectorIS2_SaIS2_EEE4baseEv(ptr noundef nonnull align 8 dereferenceable(8) %5) #12
  %7 = load ptr, ptr %6, align 8, !tbaa !68
  %8 = load ptr, ptr %4, align 8, !tbaa !1506
  %9 = call noundef nonnull align 8 dereferenceable(8) ptr @_ZNK9__gnu_cxx17__normal_iteratorIPKN5folly12HugePageSizeESt6vectorIS2_SaIS2_EEE4baseEv(ptr noundef nonnull align 8 dereferenceable(8) %8) #12
  %10 = load ptr, ptr %9, align 8, !tbaa !68
  %11 = icmp ne ptr %7, %10
  ret i1 %11
}

; Function Attrs: mustprogress nounwind uwtable
define linkonce_odr ptr @_ZNKSt6vectorIN5folly12HugePageSizeESaIS1_EE3endEv(ptr noundef nonnull align 8 dereferenceable(24) %0) #2 comdat align 2 {
  %2 = alloca %"class.__gnu_cxx::__normal_iterator.246", align 8
  %3 = alloca ptr, align 8
  store ptr %0, ptr %3, align 8, !tbaa !58
  %4 = load ptr, ptr %3, align 8
  %5 = getelementptr inbounds nuw %"struct.std::_Vector_base", ptr %4, i32 0, i32 0
  %6 = getelementptr inbounds nuw %"struct.std::_Vector_base<folly::HugePageSize, std::allocator<folly::HugePageSize>>::_Vector_impl_data", ptr %5, i32 0, i32 1
  call void @_ZN9__gnu_cxx17__normal_iteratorIPKN5folly12HugePageSizeESt6vectorIS2_SaIS2_EEEC2ERKS4_(ptr noundef nonnull align 8 dereferenceable(8) %2, ptr noundef nonnull align 8 dereferenceable(8) %6) #12
  %7 = getelementptr inbounds nuw %"class.__gnu_cxx::__normal_iterator.246", ptr %2, i32 0, i32 0
  %8 = load ptr, ptr %7, align 8
  ret ptr %8
}

; Function Attrs: mustprogress nounwind uwtable
define linkonce_odr ptr @_ZNKSt6vectorIN5folly12HugePageSizeESaIS1_EE5beginEv(ptr noundef nonnull align 8 dereferenceable(24) %0) #2 comdat align 2 {
  %2 = alloca %"class.__gnu_cxx::__normal_iterator.246", align 8
  %3 = alloca ptr, align 8
  store ptr %0, ptr %3, align 8, !tbaa !58
  %4 = load ptr, ptr %3, align 8
  %5 = getelementptr inbounds nuw %"struct.std::_Vector_base", ptr %4, i32 0, i32 0
  %6 = getelementptr inbounds nuw %"struct.std::_Vector_base<folly::HugePageSize, std::allocator<folly::HugePageSize>>::_Vector_impl_data", ptr %5, i32 0, i32 0
  call void @_ZN9__gnu_cxx17__normal_iteratorIPKN5folly12HugePageSizeESt6vectorIS2_SaIS2_EEEC2ERKS4_(ptr noundef nonnull align 8 dereferenceable(8) %2, ptr noundef nonnull align 8 dereferenceable(8) %6) #12
  %7 = getelementptr inbounds nuw %"class.__gnu_cxx::__normal_iterator.246", ptr %2, i32 0, i32 0
  %8 = load ptr, ptr %7, align 8
  ret ptr %8
}

; Function Attrs: mustprogress uwtable
define noundef nonnull align 8 dereferenceable(24) ptr @_ZN5folly16getHugePageSizesEv() #3 personality ptr @__gxx_personality_v0 {
  %1 = alloca ptr, align 8
  %2 = alloca i32, align 4
  %3 = load atomic i8, ptr @_ZGVZN5folly16getHugePageSizesEvE5sizes acquire, align 8
  %4 = icmp eq i8 %3, 0
  br i1 %4, label %5, label %11, !prof !53

5:                                                ; preds = %0
  %6 = call i32 @__cxa_guard_acquire(ptr @_ZGVZN5folly16getHugePageSizesEvE5sizes) #12
  %7 = icmp ne i32 %6, 0
  br i1 %7, label %8, label %11

8:                                                ; preds = %5
  invoke void @_ZN5folly12_GLOBAL__N_117readHugePageSizesEv(ptr dead_on_unwind writable sret(%"class.std::vector") align 8 @_ZZN5folly16getHugePageSizesEvE5sizes)
          to label %9 unwind label %12

9:                                                ; preds = %8
  %10 = call i32 @__cxa_atexit(ptr @_ZNSt6vectorIN5folly12HugePageSizeESaIS1_EED2Ev, ptr @_ZZN5folly16getHugePageSizesEvE5sizes, ptr @__dso_handle) #12
  call void @__cxa_guard_release(ptr @_ZGVZN5folly16getHugePageSizesEvE5sizes) #12
  br label %11

11:                                               ; preds = %9, %5, %0
  ret ptr @_ZZN5folly16getHugePageSizesEvE5sizes

12:                                               ; preds = %8
  %13 = landingpad { ptr, i32 }
          cleanup
  %14 = extractvalue { ptr, i32 } %13, 0
  store ptr %14, ptr %1, align 8
  %15 = extractvalue { ptr, i32 } %13, 1
  store i32 %15, ptr %2, align 4
  call void @__cxa_guard_abort(ptr @_ZGVZN5folly16getHugePageSizesEvE5sizes) #12
  br label %16

16:                                               ; preds = %12
  %17 = load ptr, ptr %1, align 8
  %18 = load i32, ptr %2, align 4
  %19 = insertvalue { ptr, i32 } poison, ptr %17, 0
  %20 = insertvalue { ptr, i32 } %19, i32 %18, 1
  resume { ptr, i32 } %20
}

; Function Attrs: mustprogress uwtable
define noundef ptr @_ZN5folly24getHugePageSizeForDeviceEm(i64 noundef %0) #3 {
  %2 = alloca ptr, align 8
  %3 = alloca i64, align 8
  %4 = alloca ptr, align 8
  %5 = alloca %"class.__gnu_cxx::__normal_iterator.246", align 8
  %6 = alloca %"class.__gnu_cxx::__normal_iterator.246", align 8
  %7 = alloca i32, align 4
  %8 = alloca ptr, align 8
  store i64 %0, ptr %3, align 8, !tbaa !22
  call void @llvm.lifetime.start.p0(i64 8, ptr %4) #12
  %9 = call noundef nonnull align 8 dereferenceable(24) ptr @_ZN5folly16getHugePageSizesEv()
  store ptr %9, ptr %4, align 8, !tbaa !58
  call void @llvm.lifetime.start.p0(i64 8, ptr %5) #12
  %10 = load ptr, ptr %4, align 8, !tbaa !58
  %11 = call ptr @_ZNKSt6vectorIN5folly12HugePageSizeESaIS1_EE5beginEv(ptr noundef nonnull align 8 dereferenceable(24) %10) #12
  %12 = getelementptr inbounds nuw %"class.__gnu_cxx::__normal_iterator.246", ptr %5, i32 0, i32 0
  store ptr %11, ptr %12, align 8
  call void @llvm.lifetime.start.p0(i64 8, ptr %6) #12
  %13 = load ptr, ptr %4, align 8, !tbaa !58
  %14 = call ptr @_ZNKSt6vectorIN5folly12HugePageSizeESaIS1_EE3endEv(ptr noundef nonnull align 8 dereferenceable(24) %13) #12
  %15 = getelementptr inbounds nuw %"class.__gnu_cxx::__normal_iterator.246", ptr %6, i32 0, i32 0
  store ptr %14, ptr %15, align 8
  br label %16

16:                                               ; preds = %37, %1
  %17 = call noundef zeroext i1 @_ZN9__gnu_cxxneIPKN5folly12HugePageSizeESt6vectorIS2_SaIS2_EEEEbRKNS_17__normal_iteratorIT_T0_EESD_(ptr noundef nonnull align 8 dereferenceable(8) %5, ptr noundef nonnull align 8 dereferenceable(8) %6) #12
  br i1 %17, label %19, label %18

18:                                               ; preds = %16
  store i32 2, ptr %7, align 4
  br label %39

19:                                               ; preds = %16
  call void @llvm.lifetime.start.p0(i64 8, ptr %8) #12
  %20 = call noundef nonnull align 8 dereferenceable(48) ptr @_ZNK9__gnu_cxx17__normal_iteratorIPKN5folly12HugePageSizeESt6vectorIS2_SaIS2_EEEdeEv(ptr noundef nonnull align 8 dereferenceable(8) %5) #12
  store ptr %20, ptr %8, align 8, !tbaa !68
  %21 = load ptr, ptr %8, align 8, !tbaa !68
  %22 = getelementptr inbounds nuw %"struct.folly::HugePageSize", ptr %21, i32 0, i32 1
  %23 = call noundef zeroext i1 @_ZNK5boost10filesystem4path5emptyEv(ptr noundef nonnull align 8 dereferenceable(32) %22) #12
  br i1 %23, label %24, label %25

24:                                               ; preds = %19
  store i32 3, ptr %7, align 4
  br label %34

25:                                               ; preds = %19
  %26 = load i64, ptr %3, align 8, !tbaa !22
  %27 = load ptr, ptr %8, align 8, !tbaa !68
  %28 = getelementptr inbounds nuw %"struct.folly::HugePageSize", ptr %27, i32 0, i32 2
  %29 = load i64, ptr %28, align 8, !tbaa !1439
  %30 = icmp eq i64 %26, %29
  br i1 %30, label %31, label %33

31:                                               ; preds = %25
  %32 = load ptr, ptr %8, align 8, !tbaa !68
  store ptr %32, ptr %2, align 8
  store i32 1, ptr %7, align 4
  br label %34

33:                                               ; preds = %25
  store i32 0, ptr %7, align 4
  br label %34

34:                                               ; preds = %33, %31, %24
  call void @llvm.lifetime.end.p0(i64 8, ptr %8) #12
  %35 = load i32, ptr %7, align 4
  switch i32 %35, label %39 [
    i32 0, label %36
    i32 3, label %37
  ]

36:                                               ; preds = %34
  br label %37

37:                                               ; preds = %36, %34
  %38 = call noundef nonnull align 8 dereferenceable(8) ptr @_ZN9__gnu_cxx17__normal_iteratorIPKN5folly12HugePageSizeESt6vectorIS2_SaIS2_EEEppEv(ptr noundef nonnull align 8 dereferenceable(8) %5) #12
  br label %16

39:                                               ; preds = %34, %18
  call void @llvm.lifetime.end.p0(i64 8, ptr %6) #12
  call void @llvm.lifetime.end.p0(i64 8, ptr %5) #12
  call void @llvm.lifetime.end.p0(i64 8, ptr %4) #12
  %40 = load i32, ptr %7, align 4
  switch i32 %40, label %44 [
    i32 2, label %41
    i32 1, label %42
  ]

41:                                               ; preds = %39
  store ptr null, ptr %2, align 8
  br label %42

42:                                               ; preds = %41, %39
  %43 = load ptr, ptr %2, align 8
  ret ptr %43

44:                                               ; preds = %39
  unreachable
}