; Function Attrs: mustprogress uwtable
define noundef ptr @_ZN5folly24getHugePageSizeForDeviceEm(i64 noundef %0) local_unnamed_addr #3 personality ptr @__gxx_personality_v0 {
  %2 = load atomic i8, ptr @_ZGVZN5folly16getHugePageSizesEvE5sizes acquire, align 8
  %3 = icmp eq i8 %2, 0
  br i1 %3, label %4, label %_ZN5folly16getHugePageSizesEv.exit, !prof !19

4:                                                ; preds = %1
  %5 = tail call i32 @__cxa_guard_acquire(ptr nonnull @_ZGVZN5folly16getHugePageSizesEvE5sizes) #32
  %.not.i = icmp eq i32 %5, 0
  br i1 %.not.i, label %_ZN5folly16getHugePageSizesEv.exit, label %6

6:                                                ; preds = %4
  invoke fastcc void @_ZN5folly12_GLOBAL__N_117readHugePageSizesEv()
          to label %7 unwind label %9

7:                                                ; preds = %6
  %8 = tail call i32 @__cxa_atexit(ptr nonnull @_ZNSt6vectorIN5folly12HugePageSizeESaIS1_EED2Ev, ptr nonnull @_ZZN5folly16getHugePageSizesEvE5sizes, ptr nonnull @__dso_handle) #32
  tail call void @__cxa_guard_release(ptr nonnull @_ZGVZN5folly16getHugePageSizesEvE5sizes) #32
  br label %_ZN5folly16getHugePageSizesEv.exit

9:                                                ; preds = %6
  %10 = landingpad { ptr, i32 }
          cleanup
  tail call void @__cxa_guard_abort(ptr nonnull @_ZGVZN5folly16getHugePageSizesEvE5sizes) #32
  resume { ptr, i32 } %10

_ZN5folly16getHugePageSizesEv.exit:               ; preds = %1, %4, %7
  %11 = load ptr, ptr @_ZZN5folly16getHugePageSizesEvE5sizes, align 8, !tbaa !85
  %12 = load ptr, ptr getelementptr inbounds nuw (i8, ptr @_ZZN5folly16getHugePageSizesEvE5sizes, i64 8), align 8, !tbaa !85
  %.not13 = icmp eq ptr %11, %12
  br i1 %.not13, label %._crit_edge, label %.lr.ph

.lr.ph:                                           ; preds = %_ZN5folly16getHugePageSizesEv.exit, %19
  %.015 = phi ptr [ %.2, %19 ], [ undef, %_ZN5folly16getHugePageSizesEv.exit ]
  %.sroa.010.014 = phi ptr [ %20, %19 ], [ %11, %_ZN5folly16getHugePageSizesEv.exit ]
  %13 = getelementptr inbounds nuw i8, ptr %.sroa.010.014, i64 16
  %14 = load i64, ptr %13, align 8, !tbaa !18
  %15 = icmp eq i64 %14, 0
  %16 = getelementptr inbounds nuw i8, ptr %.sroa.010.014, i64 40
  %17 = load i64, ptr %16, align 8
  %18 = icmp eq i64 %0, %17
  %. = zext i1 %18 to i32
  %..0 = select i1 %18, ptr %.sroa.010.014, ptr %.015
  %.19 = select i1 %15, i32 3, i32 %.
  %.2 = select i1 %15, ptr %.015, ptr %..0
  switch i32 %.19, label %._crit_edge [
    i32 0, label %19
    i32 3, label %19
  ]

19:                                               ; preds = %.lr.ph, %.lr.ph
  %20 = getelementptr inbounds nuw i8, ptr %.sroa.010.014, i64 48
  %.not = icmp eq ptr %20, %12
  br i1 %.not, label %._crit_edge, label %.lr.ph

._crit_edge:                                      ; preds = %.lr.ph, %19, %_ZN5folly16getHugePageSizesEv.exit
  %spec.select = phi ptr [ null, %_ZN5folly16getHugePageSizesEv.exit ], [ null, %19 ], [ %.2, %.lr.ph ]
  ret ptr %spec.select
}